; Function Attrs: mustprogress nounwind uwtable
define internal fastcc noundef ptr @_ZN12_GLOBAL__N_117RewriteModernObjC18RewriteMessageExprEPN5clang15ObjCMessageExprE(ptr noundef nonnull align 8 dereferenceable(4192) %0, ptr noundef %1) unnamed_addr #0 align 2 {
  %3 = getelementptr inbounds nuw i8, ptr %1, i64 32
  %.sroa.0.0.copyload.i = load i32, ptr %3, align 8
  %4 = getelementptr inbounds nuw i8, ptr %1, i64 36
  %.sroa.0.0.copyload.i8 = load i32, ptr %4, align 4
  %5 = tail call fastcc noundef ptr @_ZN12_GLOBAL__N_117RewriteModernObjC16SynthMessageExprEPN5clang15ObjCMessageExprENS1_14SourceLocationES4_(ptr noundef nonnull align 8 dereferenceable(4192) %0, ptr noundef nonnull %1, i32 %.sroa.0.0.copyload.i, i32 %.sroa.0.0.copyload.i8)
  %6 = tail call i64 @_ZNK5clang4Stmt14getSourceRangeEv(ptr noundef nonnull align 8 dereferenceable(8) %1) #20
  tail call fastcc void @_ZN12_GLOBAL__N_117RewriteModernObjC20ReplaceStmtWithRangeEPN5clang4StmtES3_NS1_11SourceRangeE(ptr noundef nonnull align 8 dereferenceable(4192) %0, ptr noundef nonnull %1, ptr noundef %5, i64 %6)
  ret ptr %5
}